target datalayout = "e-m:e-p270:32:32-p271:32:32-p272:64:64-i64:64-i128:128-f80:128-n8:16:32:64-S128"
target triple = "x86_64-pc-linux-gnu"

%struct.lean_object = type { i32, i32 }

@_G_initialized = internal global i8 0, align 1

; Function Attrs: inlinehint nounwind uwtable
define internal zeroext i8 @lean_ptr_tag(ptr noundef %0) #2 {
  %2 = alloca ptr, align 8
  store ptr %0, ptr %2, align 8, !tbaa !7
  %3 = load ptr, ptr %2, align 8, !tbaa !7
  %4 = getelementptr inbounds nuw %struct.lean_object, ptr %3, i32 0, i32 1
  %5 = load i32, ptr %4, align 4
  %6 = lshr i32 %5, 24
  %7 = trunc i32 %6 to i8
  ret i8 %7
}

; Function Attrs: alwaysinline nounwind uwtable
define internal void @lean_dec_ref(ptr noundef %0) #4 {
  %2 = alloca ptr, align 8
  store ptr %0, ptr %2, align 8, !tbaa !7
  %3 = load ptr, ptr %2, align 8, !tbaa !7
  %4 = getelementptr inbounds nuw %struct.lean_object, ptr %3, i32 0, i32 0
  %5 = load i32, ptr %4, align 4, !tbaa !15
  %6 = icmp sgt i32 %5, 1
  %7 = zext i1 %6 to i32
  %8 = sext i32 %7 to i64
  %9 = call i64 @llvm.expect.i64(i64 %8, i64 1)
  %10 = icmp ne i64 %9, 0
  br i1 %10, label %11, label %16

11:                                               ; preds = %1
  %12 = load ptr, ptr %2, align 8, !tbaa !7
  %13 = getelementptr inbounds nuw %struct.lean_object, ptr %12, i32 0, i32 0
  %14 = load i32, ptr %13, align 4, !tbaa !15
  %15 = add i32 %14, -1
  store i32 %15, ptr %13, align 4, !tbaa !15
  br label %24

16:                                               ; preds = %1
  %17 = load ptr, ptr %2, align 8, !tbaa !7
  %18 = getelementptr inbounds nuw %struct.lean_object, ptr %17, i32 0, i32 0
  %19 = load i32, ptr %18, align 4, !tbaa !15
  %20 = icmp ne i32 %19, 0
  br i1 %20, label %21, label %23

21:                                               ; preds = %16
  %22 = load ptr, ptr %2, align 8, !tbaa !7
  call void @lean_dec_ref_cold(ptr noundef %22)
  br label %23

23:                                               ; preds = %21, %16
  br label %24

24:                                               ; preds = %23, %11
  ret void
}

; Function Attrs: inlinehint nounwind uwtable
define internal zeroext i1 @lean_io_result_is_error(ptr noundef %0) #2 {
  %2 = alloca ptr, align 8
  store ptr %0, ptr %2, align 8, !tbaa !7
  %3 = load ptr, ptr %2, align 8, !tbaa !7
  %4 = call zeroext i8 @lean_ptr_tag(ptr noundef %3)
  %5 = zext i8 %4 to i32
  %6 = icmp eq i32 %5, 1
  ret i1 %6
}

; Function Attrs: inlinehint nounwind uwtable
define internal ptr @lean_io_mk_world() #2 {
  %1 = call ptr @lean_box(i64 noundef 0)
  ret ptr %1
}

; Function Attrs: inlinehint nounwind uwtable
define internal ptr @lean_box(i64 noundef %0) #2 {
  %2 = alloca i64, align 8
  store i64 %0, ptr %2, align 8, !tbaa !13
  %3 = load i64, ptr %2, align 8, !tbaa !13
  %4 = shl i64 %3, 1
  %5 = or i64 %4, 1
  %6 = inttoptr i64 %5 to ptr
  ret ptr %6
}

; Function Attrs: nounwind uwtable
define ptr @initialize_Std_Tactic_BVDecide_LRAT_Internal_Formula(i8 noundef zeroext %0, ptr noundef %1) #0 {
  %3 = alloca ptr, align 8
  %4 = alloca i8, align 1
  %5 = alloca ptr, align 8
  %6 = alloca ptr, align 8
  %7 = alloca i32, align 4
  store i8 %0, ptr %4, align 1, !tbaa !4
  store ptr %1, ptr %5, align 8, !tbaa !7
  call void @llvm.lifetime.start.p0(i64 8, ptr %6) #7
  %8 = load i8, ptr @_G_initialized, align 1, !tbaa !9, !range !11, !noundef !12
  %9 = trunc i8 %8 to i1
  br i1 %9, label %10, label %13

10:                                               ; preds = %2
  %11 = call ptr @lean_box(i64 noundef 0)
  %12 = call ptr @lean_io_result_mk_ok(ptr noundef %11)
  store ptr %12, ptr %3, align 8
  store i32 1, ptr %7, align 4
  br label %88

13:                                               ; preds = %2
  store i8 1, ptr @_G_initialized, align 1, !tbaa !9
  %14 = load i8, ptr %4, align 1, !tbaa !4
  %15 = call ptr @lean_io_mk_world()
  %16 = call ptr @initialize_Std_Tactic_BVDecide_LRAT_Internal_Formula_Lemmas(i8 noundef zeroext %14, ptr noundef %15)
  store ptr %16, ptr %6, align 8, !tbaa !7
  %17 = load ptr, ptr %6, align 8, !tbaa !7
  %18 = call zeroext i1 @lean_io_result_is_error(ptr noundef %17)
  br i1 %18, label %19, label %21

19:                                               ; preds = %13
  %20 = load ptr, ptr %6, align 8, !tbaa !7
  store ptr %20, ptr %3, align 8
  store i32 1, ptr %7, align 4
  br label %88

21:                                               ; preds = %13
  %22 = load ptr, ptr %6, align 8, !tbaa !7
  call void @lean_dec_ref(ptr noundef %22)
  %23 = load i8, ptr %4, align 1, !tbaa !4
  %24 = call ptr @lean_io_mk_world()
  %25 = call ptr @initialize_Std_Tactic_BVDecide_LRAT_Internal_Formula_Class(i8 noundef zeroext %23, ptr noundef %24)
  store ptr %25, ptr %6, align 8, !tbaa !7
  %26 = load ptr, ptr %6, align 8, !tbaa !7
  %27 = call zeroext i1 @lean_io_result_is_error(ptr noundef %26)
  br i1 %27, label %28, label %30

28:                                               ; preds = %21
  %29 = load ptr, ptr %6, align 8, !tbaa !7
  store ptr %29, ptr %3, align 8
  store i32 1, ptr %7, align 4
  br label %88

30:                                               ; preds = %21
  %31 = load ptr, ptr %6, align 8, !tbaa !7
  call void @lean_dec_ref(ptr noundef %31)
  %32 = load i8, ptr %4, align 1, !tbaa !4
  %33 = call ptr @lean_io_mk_world()
  %34 = call ptr @initialize_Std_Tactic_BVDecide_LRAT_Internal_Formula_Implementation(i8 noundef zeroext %32, ptr noundef %33)
  store ptr %34, ptr %6, align 8, !tbaa !7
  %35 = load ptr, ptr %6, align 8, !tbaa !7
  %36 = call zeroext i1 @lean_io_result_is_error(ptr noundef %35)
  br i1 %36, label %37, label %39

37:                                               ; preds = %30
  %38 = load ptr, ptr %6, align 8, !tbaa !7
  store ptr %38, ptr %3, align 8
  store i32 1, ptr %7, align 4
  br label %88

39:                                               ; preds = %30
  %40 = load ptr, ptr %6, align 8, !tbaa !7
  call void @lean_dec_ref(ptr noundef %40)
  %41 = load i8, ptr %4, align 1, !tbaa !4
  %42 = call ptr @lean_io_mk_world()
  %43 = call ptr @initialize_Std_Tactic_BVDecide_LRAT_Internal_Formula_Instance(i8 noundef zeroext %41, ptr noundef %42)
  store ptr %43, ptr %6, align 8, !tbaa !7
  %44 = load ptr, ptr %6, align 8, !tbaa !7
  %45 = call zeroext i1 @lean_io_result_is_error(ptr noundef %44)
  br i1 %45, label %46, label %48

46:                                               ; preds = %39
  %47 = load ptr, ptr %6, align 8, !tbaa !7
  store ptr %47, ptr %3, align 8
  store i32 1, ptr %7, align 4
  br label %88

48:                                               ; preds = %39
  %49 = load ptr, ptr %6, align 8, !tbaa !7
  call void @lean_dec_ref(ptr noundef %49)
  %50 = load i8, ptr %4, align 1, !tbaa !4
  %51 = call ptr @lean_io_mk_world()
  %52 = call ptr @initialize_Std_Tactic_BVDecide_LRAT_Internal_Formula_RatAddResult(i8 noundef zeroext %50, ptr noundef %51)
  store ptr %52, ptr %6, align 8, !tbaa !7
  %53 = load ptr, ptr %6, align 8, !tbaa !7
  %54 = call zeroext i1 @lean_io_result_is_error(ptr noundef %53)
  br i1 %54, label %55, label %57

55:                                               ; preds = %48
  %56 = load ptr, ptr %6, align 8, !tbaa !7
  store ptr %56, ptr %3, align 8
  store i32 1, ptr %7, align 4
  br label %88

57:                                               ; preds = %48
  %58 = load ptr, ptr %6, align 8, !tbaa !7
  call void @lean_dec_ref(ptr noundef %58)
  %59 = load i8, ptr %4, align 1, !tbaa !4
  %60 = call ptr @lean_io_mk_world()
  %61 = call ptr @initialize_Std_Tactic_BVDecide_LRAT_Internal_Formula_RatAddSound(i8 noundef zeroext %59, ptr noundef %60)
  store ptr %61, ptr %6, align 8, !tbaa !7
  %62 = load ptr, ptr %6, align 8, !tbaa !7
  %63 = call zeroext i1 @lean_io_result_is_error(ptr noundef %62)
  br i1 %63, label %64, label %66

64:                                               ; preds = %57
  %65 = load ptr, ptr %6, align 8, !tbaa !7
  store ptr %65, ptr %3, align 8
  store i32 1, ptr %7, align 4
  br label %88

66:                                               ; preds = %57
  %67 = load ptr, ptr %6, align 8, !tbaa !7
  call void @lean_dec_ref(ptr noundef %67)
  %68 = load i8, ptr %4, align 1, !tbaa !4
  %69 = call ptr @lean_io_mk_world()
  %70 = call ptr @initialize_Std_Tactic_BVDecide_LRAT_Internal_Formula_RupAddResult(i8 noundef zeroext %68, ptr noundef %69)
  store ptr %70, ptr %6, align 8, !tbaa !7
  %71 = load ptr, ptr %6, align 8, !tbaa !7
  %72 = call zeroext i1 @lean_io_result_is_error(ptr noundef %71)
  br i1 %72, label %73, label %75

73:                                               ; preds = %66
  %74 = load ptr, ptr %6, align 8, !tbaa !7
  store ptr %74, ptr %3, align 8
  store i32 1, ptr %7, align 4
  br label %88

75:                                               ; preds = %66
  %76 = load ptr, ptr %6, align 8, !tbaa !7
  call void @lean_dec_ref(ptr noundef %76)
  %77 = load i8, ptr %4, align 1, !tbaa !4
  %78 = call ptr @lean_io_mk_world()
  %79 = call ptr @initialize_Std_Tactic_BVDecide_LRAT_Internal_Formula_RupAddSound(i8 noundef zeroext %77, ptr noundef %78)
  store ptr %79, ptr %6, align 8, !tbaa !7
  %80 = load ptr, ptr %6, align 8, !tbaa !7
  %81 = call zeroext i1 @lean_io_result_is_error(ptr noundef %80)
  br i1 %81, label %82, label %84

82:                                               ; preds = %75
  %83 = load ptr, ptr %6, align 8, !tbaa !7
  store ptr %83, ptr %3, align 8
  store i32 1, ptr %7, align 4
  br label %88

84:                                               ; preds = %75
  %85 = load ptr, ptr %6, align 8, !tbaa !7
  call void @lean_dec_ref(ptr noundef %85)
  %86 = call ptr @lean_box(i64 noundef 0)
  %87 = call ptr @lean_io_result_mk_ok(ptr noundef %86)
  store ptr %87, ptr %3, align 8
  store i32 1, ptr %7, align 4
  br label %88

88:                                               ; preds = %84, %82, %73, %64, %55, %46, %37, %28, %19, %10
  call void @llvm.lifetime.end.p0(i64 8, ptr %6) #7
  %89 = load ptr, ptr %3, align 8
  ret ptr %89
}